target datalayout = "e-m:e-p270:32:32-p271:32:32-p272:64:64-i64:64-i128:128-f80:128-n8:16:32:64-S128"
target triple = "x86_64-pc-linux-gnu"

%struct.DefElem = type { i32, ptr, ptr, ptr, i32, i32 }
%struct.Node = type { i32 }
%struct.Integer = type { i32, i32 }

@.str.4 = private unnamed_addr constant [19 x i8] c"subscriptioncmds.c\00", align 1
@.str.8 = private unnamed_addr constant [4 x i8] c"off\00", align 1
@.str.48 = private unnamed_addr constant [6 x i8] c"false\00", align 1
@.str.49 = private unnamed_addr constant [5 x i8] c"true\00", align 1
@.str.50 = private unnamed_addr constant [3 x i8] c"on\00", align 1
@.str.51 = private unnamed_addr constant [9 x i8] c"parallel\00", align 1
@.str.52 = private unnamed_addr constant [42 x i8] c"%s requires a Boolean value or \22parallel\22\00", align 1
@__func__.defGetStreamingMode = private unnamed_addr constant [20 x i8] c"defGetStreamingMode\00", align 1

; Function Attrs: nounwind uwtable
define dso_local signext i8 @defGetStreamingMode(ptr noundef %0) #0 {
  %2 = alloca i8, align 1
  %3 = alloca ptr, align 8
  %4 = alloca ptr, align 8
  %5 = alloca i32, align 4
  store ptr %0, ptr %3, align 8
  %6 = load ptr, ptr %3, align 8
  %7 = getelementptr inbounds nuw %struct.DefElem, ptr %6, i32 0, i32 3
  %8 = load ptr, ptr %7, align 8
  %9 = icmp ne ptr %8, null
  br i1 %9, label %11, label %10

10:                                               ; preds = %1
  store i8 116, ptr %2, align 1
  br label %70

11:                                               ; preds = %1
  %12 = load ptr, ptr %3, align 8
  %13 = getelementptr inbounds nuw %struct.DefElem, ptr %12, i32 0, i32 3
  %14 = load ptr, ptr %13, align 8
  %15 = getelementptr inbounds nuw %struct.Node, ptr %14, i32 0, i32 0
  %16 = load i32, ptr %15, align 4
  switch i32 %16, label %27 [
    i32 464, label %17
  ]

17:                                               ; preds = %11
  %18 = load ptr, ptr %3, align 8
  %19 = getelementptr inbounds nuw %struct.DefElem, ptr %18, i32 0, i32 3
  %20 = load ptr, ptr %19, align 8
  %21 = getelementptr inbounds nuw %struct.Integer, ptr %20, i32 0, i32 1
  %22 = load i32, ptr %21, align 4
  switch i32 %22, label %25 [
    i32 0, label %23
    i32 1, label %24
  ]

23:                                               ; preds = %17
  store i8 102, ptr %2, align 1
  br label %70

24:                                               ; preds = %17
  store i8 116, ptr %2, align 1
  br label %70

25:                                               ; preds = %17
  br label %26

26:                                               ; preds = %25
  br label %56

27:                                               ; preds = %11
  call void @llvm.lifetime.start.p0(i64 8, ptr %4) #10
  %28 = load ptr, ptr %3, align 8
  %29 = call ptr @defGetString(ptr noundef %28)
  store ptr %29, ptr %4, align 8
  %30 = load ptr, ptr %4, align 8
  %31 = call i32 @pg_strcasecmp(ptr noundef %30, ptr noundef @.str.48)
  %32 = icmp eq i32 %31, 0
  br i1 %32, label %37, label %33

33:                                               ; preds = %27
  %34 = load ptr, ptr %4, align 8
  %35 = call i32 @pg_strcasecmp(ptr noundef %34, ptr noundef @.str.8)
  %36 = icmp eq i32 %35, 0
  br i1 %36, label %37, label %38

37:                                               ; preds = %33, %27
  store i8 102, ptr %2, align 1
  store i32 1, ptr %5, align 4
  br label %53

38:                                               ; preds = %33
  %39 = load ptr, ptr %4, align 8
  %40 = call i32 @pg_strcasecmp(ptr noundef %39, ptr noundef @.str.49)
  %41 = icmp eq i32 %40, 0
  br i1 %41, label %46, label %42

42:                                               ; preds = %38
  %43 = load ptr, ptr %4, align 8
  %44 = call i32 @pg_strcasecmp(ptr noundef %43, ptr noundef @.str.50)
  %45 = icmp eq i32 %44, 0
  br i1 %45, label %46, label %47

46:                                               ; preds = %42, %38
  store i8 116, ptr %2, align 1
  store i32 1, ptr %5, align 4
  br label %53

47:                                               ; preds = %42
  %48 = load ptr, ptr %4, align 8
  %49 = call i32 @pg_strcasecmp(ptr noundef %48, ptr noundef @.str.51)
  %50 = icmp eq i32 %49, 0
  br i1 %50, label %51, label %52

51:                                               ; preds = %47
  store i8 112, ptr %2, align 1
  store i32 1, ptr %5, align 4
  br label %53

52:                                               ; preds = %47
  store i32 0, ptr %5, align 4
  br label %53

53:                                               ; preds = %52, %51, %46, %37
  call void @llvm.lifetime.end.p0(i64 8, ptr %4) #10
  %54 = load i32, ptr %5, align 4
  switch i32 %54, label %72 [
    i32 0, label %55
    i32 1, label %70
  ]

55:                                               ; preds = %53
  br label %56

56:                                               ; preds = %55, %26
  br label %57

57:                                               ; preds = %56
  br i1 true, label %58, label %60

58:                                               ; preds = %57
  %59 = call zeroext i1 @errstart_cold(i32 noundef 21, ptr noundef null) #11
  br i1 %59, label %62, label %68

60:                                               ; preds = %57
  %61 = call zeroext i1 @errstart(i32 noundef 21, ptr noundef null)
  br i1 %61, label %62, label %68

62:                                               ; preds = %60, %58
  %63 = call i32 @errcode(i32 noundef 16801924)
  %64 = load ptr, ptr %3, align 8
  %65 = getelementptr inbounds nuw %struct.DefElem, ptr %64, i32 0, i32 2
  %66 = load ptr, ptr %65, align 8
  %67 = call i32 (ptr, ...) @errmsg(ptr noundef @.str.52, ptr noundef %66)
  call void @errfinish(ptr noundef @.str.4, i32 noundef 2504, ptr noundef @__func__.defGetStreamingMode)
  br label %68

68:                                               ; preds = %62, %60, %58
  unreachable

69:                                               ; No predecessors!
  store i8 102, ptr %2, align 1
  br label %70

70:                                               ; preds = %69, %53, %24, %23, %10
  %71 = load i8, ptr %2, align 1
  ret i8 %71

72:                                               ; preds = %53
  unreachable
}