; Function Attrs: nounwind uwtable
define dso_local signext range(i8 102, 117) i8 @defGetStreamingMode(ptr noundef %0) local_unnamed_addr #0 {
  %2 = getelementptr inbounds nuw i8, ptr %0, i64 24
  %3 = load ptr, ptr %2, align 8
  %.not = icmp eq ptr %3, null
  br i1 %.not, label %.thread, label %4

4:                                                ; preds = %1
  %5 = load i32, ptr %3, align 4
  %cond = icmp eq i32 %5, 464
  br i1 %cond, label %6, label %10

6:                                                ; preds = %4
  %7 = getelementptr inbounds nuw i8, ptr %3, i64 4
  %8 = load i32, ptr %7, align 4
  switch i32 %8, label %25 [
    i32 0, label %.thread
    i32 1, label %9
  ]

9:                                                ; preds = %6
  br label %.thread

10:                                               ; preds = %4
  %11 = tail call ptr @defGetString(ptr noundef nonnull %0) #10
  %12 = tail call i32 @pg_strcasecmp(ptr noundef %11, ptr noundef nonnull @.str.48) #10
  %13 = icmp eq i32 %12, 0
  br i1 %13, label %.thread, label %14

14:                                               ; preds = %10
  %15 = tail call i32 @pg_strcasecmp(ptr noundef %11, ptr noundef nonnull @.str.8) #10
  %16 = icmp eq i32 %15, 0
  br i1 %16, label %.thread, label %17

17:                                               ; preds = %14
  %18 = tail call i32 @pg_strcasecmp(ptr noundef %11, ptr noundef nonnull @.str.49) #10
  %19 = icmp eq i32 %18, 0
  br i1 %19, label %.thread, label %20

20:                                               ; preds = %17
  %21 = tail call i32 @pg_strcasecmp(ptr noundef %11, ptr noundef nonnull @.str.50) #10
  %22 = icmp eq i32 %21, 0
  br i1 %22, label %.thread, label %23

23:                                               ; preds = %20
  %24 = tail call i32 @pg_strcasecmp(ptr noundef %11, ptr noundef nonnull @.str.51) #10
  %.not17 = icmp eq i32 %24, 0
  br i1 %.not17, label %.thread, label %25

25:                                               ; preds = %23, %6
  %26 = tail call zeroext i1 @errstart_cold(i32 noundef 21, ptr noundef null) #11
  tail call void @llvm.assume(i1 %26)
  %27 = tail call i32 @errcode(i32 noundef 16801924) #10
  %28 = getelementptr inbounds nuw i8, ptr %0, i64 16
  %29 = load ptr, ptr %28, align 8
  %30 = tail call i32 (ptr, ...) @errmsg(ptr noundef nonnull @.str.52, ptr noundef %29) #10
  tail call void @errfinish(ptr noundef nonnull @.str.4, i32 noundef 2504, ptr noundef nonnull @__func__.defGetStreamingMode) #10
  unreachable

.thread:                                          ; preds = %17, %20, %10, %14, %23, %6, %1, %9
  %.011 = phi i8 [ 116, %9 ], [ 112, %23 ], [ 116, %1 ], [ 102, %6 ], [ 116, %17 ], [ 116, %20 ], [ 102, %10 ], [ 102, %14 ]
  ret i8 %.011
}